target datalayout = "e-m:e-p270:32:32-p271:32:32-p272:64:64-i64:64-i128:128-f80:128-n8:16:32:64-S128"
target triple = "x86_64-pc-linux-gnu"

%struct.tracemalloc_traceback = type { i64, i16, i16, [1 x %struct.tracemalloc_frame] }
%struct.tracemalloc_frame = type <{ ptr, i32 }>

; Function Attrs: nounwind uwtable
define internal i32 @hashtable_compare_traceback(ptr noundef %0, ptr noundef %1) #0 {
  %3 = alloca i32, align 4
  %4 = alloca ptr, align 8
  %5 = alloca ptr, align 8
  %6 = alloca ptr, align 8
  %7 = alloca ptr, align 8
  %8 = alloca i32, align 4
  %9 = alloca i32, align 4
  %10 = alloca ptr, align 8
  %11 = alloca ptr, align 8
  store ptr %0, ptr %4, align 8, !tbaa !190
  store ptr %1, ptr %5, align 8, !tbaa !190
  call void @llvm.lifetime.start.p0(i64 8, ptr %6) #11
  %12 = load ptr, ptr %4, align 8, !tbaa !190
  store ptr %12, ptr %6, align 8, !tbaa !192
  call void @llvm.lifetime.start.p0(i64 8, ptr %7) #11
  %13 = load ptr, ptr %5, align 8, !tbaa !190
  store ptr %13, ptr %7, align 8, !tbaa !192
  %14 = load ptr, ptr %6, align 8, !tbaa !192
  %15 = getelementptr inbounds nuw %struct.tracemalloc_traceback, ptr %14, i32 0, i32 1
  %16 = load i16, ptr %15, align 8, !tbaa !194
  %17 = zext i16 %16 to i32
  %18 = load ptr, ptr %7, align 8, !tbaa !192
  %19 = getelementptr inbounds nuw %struct.tracemalloc_traceback, ptr %18, i32 0, i32 1
  %20 = load i16, ptr %19, align 8, !tbaa !194
  %21 = zext i16 %20 to i32
  %22 = icmp ne i32 %17, %21
  br i1 %22, label %23, label %24

23:                                               ; preds = %2
  store i32 0, ptr %3, align 4
  store i32 1, ptr %8, align 4
  br label %82

24:                                               ; preds = %2
  %25 = load ptr, ptr %6, align 8, !tbaa !192
  %26 = getelementptr inbounds nuw %struct.tracemalloc_traceback, ptr %25, i32 0, i32 2
  %27 = load i16, ptr %26, align 2, !tbaa !195
  %28 = zext i16 %27 to i32
  %29 = load ptr, ptr %7, align 8, !tbaa !192
  %30 = getelementptr inbounds nuw %struct.tracemalloc_traceback, ptr %29, i32 0, i32 2
  %31 = load i16, ptr %30, align 2, !tbaa !195
  %32 = zext i16 %31 to i32
  %33 = icmp ne i32 %28, %32
  br i1 %33, label %34, label %35

34:                                               ; preds = %24
  store i32 0, ptr %3, align 4
  store i32 1, ptr %8, align 4
  br label %82

35:                                               ; preds = %24
  call void @llvm.lifetime.start.p0(i64 4, ptr %9) #11
  store i32 0, ptr %9, align 4, !tbaa !196
  br label %36

36:                                               ; preds = %76, %35
  %37 = load i32, ptr %9, align 4, !tbaa !196
  %38 = load ptr, ptr %6, align 8, !tbaa !192
  %39 = getelementptr inbounds nuw %struct.tracemalloc_traceback, ptr %38, i32 0, i32 1
  %40 = load i16, ptr %39, align 8, !tbaa !194
  %41 = zext i16 %40 to i32
  %42 = icmp slt i32 %37, %41
  br i1 %42, label %44, label %43

43:                                               ; preds = %36
  store i32 2, ptr %8, align 4
  br label %79

44:                                               ; preds = %36
  call void @llvm.lifetime.start.p0(i64 8, ptr %10) #11
  %45 = load ptr, ptr %6, align 8, !tbaa !192
  %46 = getelementptr inbounds nuw %struct.tracemalloc_traceback, ptr %45, i32 0, i32 3
  %47 = load i32, ptr %9, align 4, !tbaa !196
  %48 = sext i32 %47 to i64
  %49 = getelementptr [1 x %struct.tracemalloc_frame], ptr %46, i64 0, i64 %48
  store ptr %49, ptr %10, align 8, !tbaa !197
  call void @llvm.lifetime.start.p0(i64 8, ptr %11) #11
  %50 = load ptr, ptr %7, align 8, !tbaa !192
  %51 = getelementptr inbounds nuw %struct.tracemalloc_traceback, ptr %50, i32 0, i32 3
  %52 = load i32, ptr %9, align 4, !tbaa !196
  %53 = sext i32 %52 to i64
  %54 = getelementptr [1 x %struct.tracemalloc_frame], ptr %51, i64 0, i64 %53
  store ptr %54, ptr %11, align 8, !tbaa !197
  %55 = load ptr, ptr %10, align 8, !tbaa !197
  %56 = getelementptr inbounds nuw %struct.tracemalloc_frame, ptr %55, i32 0, i32 1
  %57 = load i32, ptr %56, align 1, !tbaa !187
  %58 = load ptr, ptr %11, align 8, !tbaa !197
  %59 = getelementptr inbounds nuw %struct.tracemalloc_frame, ptr %58, i32 0, i32 1
  %60 = load i32, ptr %59, align 1, !tbaa !187
  %61 = icmp ne i32 %57, %60
  br i1 %61, label %62, label %63

62:                                               ; preds = %44
  store i32 0, ptr %3, align 4
  store i32 1, ptr %8, align 4
  br label %73

63:                                               ; preds = %44
  %64 = load ptr, ptr %10, align 8, !tbaa !197
  %65 = getelementptr inbounds nuw %struct.tracemalloc_frame, ptr %64, i32 0, i32 0
  %66 = load ptr, ptr %65, align 1, !tbaa !185
  %67 = load ptr, ptr %11, align 8, !tbaa !197
  %68 = getelementptr inbounds nuw %struct.tracemalloc_frame, ptr %67, i32 0, i32 0
  %69 = load ptr, ptr %68, align 1, !tbaa !185
  %70 = icmp ne ptr %66, %69
  br i1 %70, label %71, label %72

71:                                               ; preds = %63
  store i32 0, ptr %3, align 4
  store i32 1, ptr %8, align 4
  br label %73

72:                                               ; preds = %63
  store i32 0, ptr %8, align 4
  br label %73

73:                                               ; preds = %72, %71, %62
  call void @llvm.lifetime.end.p0(i64 8, ptr %11) #11
  call void @llvm.lifetime.end.p0(i64 8, ptr %10) #11
  %74 = load i32, ptr %8, align 4
  switch i32 %74, label %79 [
    i32 0, label %75
  ]

75:                                               ; preds = %73
  br label %76

76:                                               ; preds = %75
  %77 = load i32, ptr %9, align 4, !tbaa !196
  %78 = add i32 %77, 1
  store i32 %78, ptr %9, align 4, !tbaa !196
  br label %36, !llvm.loop !199

79:                                               ; preds = %73, %43
  call void @llvm.lifetime.end.p0(i64 4, ptr %9) #11
  %80 = load i32, ptr %8, align 4
  switch i32 %80, label %82 [
    i32 2, label %81
  ]

81:                                               ; preds = %79
  store i32 1, ptr %3, align 4
  store i32 1, ptr %8, align 4
  br label %82

82:                                               ; preds = %81, %79, %34, %23
  call void @llvm.lifetime.end.p0(i64 8, ptr %7) #11
  call void @llvm.lifetime.end.p0(i64 8, ptr %6) #11
  %83 = load i32, ptr %3, align 4
  ret i32 %83
}