; Function Attrs: nofree norecurse nosync nounwind memory(argmem: read) uwtable
define internal range(i32 0, 2) i32 @hashtable_compare_traceback(ptr noundef readonly captures(none) %0, ptr noundef readonly captures(none) %1) #4 {
  %3 = getelementptr inbounds nuw i8, ptr %0, i64 8
  %4 = load i16, ptr %3, align 8, !tbaa !193
  %5 = getelementptr inbounds nuw i8, ptr %1, i64 8
  %6 = load i16, ptr %5, align 8, !tbaa !193
  %.not = icmp eq i16 %4, %6
  br i1 %.not, label %7, label %.critedge

7:                                                ; preds = %2
  %8 = getelementptr inbounds nuw i8, ptr %0, i64 10
  %9 = load i16, ptr %8, align 2, !tbaa !188
  %10 = getelementptr inbounds nuw i8, ptr %1, i64 10
  %11 = load i16, ptr %10, align 2, !tbaa !188
  %.not23 = icmp eq i16 %9, %11
  br i1 %.not23, label %.preheader, label %.critedge

.preheader:                                       ; preds = %7
  %12 = getelementptr inbounds nuw i8, ptr %0, i64 12
  %.not2627 = icmp eq i16 %4, 0
  br i1 %.not2627, label %.critedge, label %.lr.ph

.lr.ph:                                           ; preds = %.preheader
  %13 = getelementptr inbounds nuw i8, ptr %1, i64 12
  %wide.trip.count = zext i16 %4 to i64
  br label %15

14:                                               ; preds = %22
  %indvars.iv.next = add nuw nsw i64 %indvars.iv, 1
  %exitcond.not = icmp eq i64 %indvars.iv.next, %wide.trip.count
  br i1 %exitcond.not, label %.critedge, label %15, !llvm.loop !194

15:                                               ; preds = %.lr.ph, %14
  %indvars.iv = phi i64 [ 0, %.lr.ph ], [ %indvars.iv.next, %14 ]
  %16 = getelementptr [1 x %struct.tracemalloc_frame], ptr %12, i64 0, i64 %indvars.iv
  %17 = getelementptr [1 x %struct.tracemalloc_frame], ptr %13, i64 0, i64 %indvars.iv
  %18 = getelementptr inbounds nuw i8, ptr %16, i64 8
  %19 = load i32, ptr %18, align 1, !tbaa !187
  %20 = getelementptr inbounds nuw i8, ptr %17, i64 8
  %21 = load i32, ptr %20, align 1, !tbaa !187
  %.not24 = icmp eq i32 %19, %21
  br i1 %.not24, label %22, label %.critedge

22:                                               ; preds = %15
  %23 = load ptr, ptr %16, align 1, !tbaa !185
  %24 = load ptr, ptr %17, align 1, !tbaa !185
  %.not25 = icmp eq ptr %23, %24
  br i1 %.not25, label %14, label %.critedge

.critedge:                                        ; preds = %15, %14, %22, %.preheader, %7, %2
  %.0 = phi i32 [ 0, %2 ], [ 0, %7 ], [ 1, %.preheader ], [ 0, %15 ], [ 1, %14 ], [ 0, %22 ]
  ret i32 %.0
}